target datalayout = "e-m:e-p270:32:32-p271:32:32-p272:64:64-i64:64-i128:128-f80:128-n8:16:32:64-S128"
target triple = "x86_64-pc-linux-gnu"

%struct.strbuf = type { i64, i64, ptr }

@.str.14 = private unnamed_addr constant [2 x i8] c"/\00", align 1
@.str.59 = private unnamed_addr constant [28 x i8] c"could not normalize path %s\00", align 1

; Function Attrs: inlinehint nounwind uwtable
define internal void @strbuf_insertstr(ptr noundef %0, i64 noundef %1, ptr noundef %2) #4 {
  %4 = alloca ptr, align 8
  %5 = alloca i64, align 8
  %6 = alloca ptr, align 8
  store ptr %0, ptr %4, align 8, !tbaa !152
  store i64 %1, ptr %5, align 8, !tbaa !91
  store ptr %2, ptr %6, align 8, !tbaa !11
  %7 = load ptr, ptr %4, align 8, !tbaa !152
  %8 = load i64, ptr %5, align 8, !tbaa !91
  %9 = load ptr, ptr %6, align 8, !tbaa !11
  %10 = load ptr, ptr %6, align 8, !tbaa !11
  %11 = call i64 @strlen(ptr noundef %10) #11
  call void @strbuf_insert(ptr noundef %7, i64 noundef %8, ptr noundef %9, i64 noundef %11)
  ret void
}

; Function Attrs: nounwind uwtable
define internal void @strbuf_to_cone_pattern(ptr noundef %0, ptr noundef %1) #0 {
  %3 = alloca ptr, align 8
  %4 = alloca ptr, align 8
  store ptr %0, ptr %3, align 8, !tbaa !152
  store ptr %1, ptr %4, align 8, !tbaa !96
  %5 = load ptr, ptr %3, align 8, !tbaa !152
  call void @strbuf_trim(ptr noundef %5)
  %6 = load ptr, ptr %3, align 8, !tbaa !152
  call void @strbuf_trim_trailing_dir_sep(ptr noundef %6)
  %7 = load ptr, ptr %3, align 8, !tbaa !152
  %8 = call i32 @strbuf_normalize_path(ptr noundef %7)
  %9 = icmp ne i32 %8, 0
  br i1 %9, label %10, label %15

10:                                               ; preds = %2
  %11 = call ptr @_(ptr noundef @.str.59)
  %12 = load ptr, ptr %3, align 8, !tbaa !152
  %13 = getelementptr inbounds nuw %struct.strbuf, ptr %12, i32 0, i32 2
  %14 = load ptr, ptr %13, align 8, !tbaa !148
  call void (ptr, ...) @die(ptr noundef %11, ptr noundef %14) #10
  unreachable

15:                                               ; preds = %2
  %16 = load ptr, ptr %3, align 8, !tbaa !152
  %17 = getelementptr inbounds nuw %struct.strbuf, ptr %16, i32 0, i32 1
  %18 = load i64, ptr %17, align 8, !tbaa !134
  %19 = icmp ne i64 %18, 0
  br i1 %19, label %21, label %20

20:                                               ; preds = %15
  br label %34

21:                                               ; preds = %15
  %22 = load ptr, ptr %3, align 8, !tbaa !152
  %23 = getelementptr inbounds nuw %struct.strbuf, ptr %22, i32 0, i32 2
  %24 = load ptr, ptr %23, align 8, !tbaa !148
  %25 = getelementptr inbounds i8, ptr %24, i64 0
  %26 = load i8, ptr %25, align 1, !tbaa !90
  %27 = sext i8 %26 to i32
  %28 = icmp ne i32 %27, 47
  br i1 %28, label %29, label %31

29:                                               ; preds = %21
  %30 = load ptr, ptr %3, align 8, !tbaa !152
  call void @strbuf_insertstr(ptr noundef %30, i64 noundef 0, ptr noundef @.str.14)
  br label %31

31:                                               ; preds = %29, %21
  %32 = load ptr, ptr %4, align 8, !tbaa !96
  %33 = load ptr, ptr %3, align 8, !tbaa !152
  call void @insert_recursive_pattern(ptr noundef %32, ptr noundef %33)
  br label %34

34:                                               ; preds = %31, %20
  ret void
}