; Function Attrs: nounwind uwtable
define internal fastcc void @strbuf_to_cone_pattern(ptr noundef nonnull %0, ptr noundef %1) unnamed_addr #0 {
  tail call void @strbuf_trim(ptr noundef nonnull %0) #13
  tail call void @strbuf_trim_trailing_dir_sep(ptr noundef nonnull %0) #13
  %3 = tail call i32 @strbuf_normalize_path(ptr noundef nonnull %0) #13
  %.not = icmp eq i32 %3, 0
  br i1 %.not, label %8, label %4

4:                                                ; preds = %2
  %5 = tail call fastcc ptr @_(ptr noundef nonnull @.str.59)
  %6 = getelementptr inbounds nuw i8, ptr %0, i64 16
  %7 = load ptr, ptr %6, align 8, !tbaa !97
  tail call void (ptr, ...) @die(ptr noundef %5, ptr noundef %7) #14
  unreachable

8:                                                ; preds = %2
  %9 = getelementptr inbounds nuw i8, ptr %0, i64 8
  %10 = load i64, ptr %9, align 8, !tbaa !100
  %.not9 = icmp eq i64 %10, 0
  br i1 %.not9, label %17, label %11

11:                                               ; preds = %8
  %12 = getelementptr inbounds nuw i8, ptr %0, i64 16
  %13 = load ptr, ptr %12, align 8, !tbaa !97
  %14 = load i8, ptr %13, align 1, !tbaa !99
  %.not10 = icmp eq i8 %14, 47
  br i1 %.not10, label %16, label %15

15:                                               ; preds = %11
  tail call void @strbuf_insert(ptr noundef nonnull %0, i64 noundef 0, ptr noundef nonnull @.str.14, i64 noundef 1) #13
  br label %16

16:                                               ; preds = %15, %11
  tail call fastcc void @insert_recursive_pattern(ptr noundef %1, ptr noundef %0)
  br label %17

17:                                               ; preds = %8, %16
  ret void
}